target datalayout = "e-m:e-p270:32:32-p271:32:32-p272:64:64-i64:64-i128:128-f80:128-n8:16:32:64-S128"
target triple = "x86_64-pc-linux-gnu"

%struct._GtkTreeIter = type { i32, ptr, ptr, ptr }

@_preferences_dialog = internal global ptr null, align 8
@edited_iter = internal global %struct._GtkTreeIter zeroinitializer, align 8

; Function Attrs: nounwind uwtable
define internal void @tree_row_activated_presets(ptr noundef %0, ptr noundef %1, ptr noundef %2, ptr noundef %3) #0 {
  %5 = alloca ptr, align 8
  %6 = alloca ptr, align 8
  %7 = alloca ptr, align 8
  %8 = alloca ptr, align 8
  %9 = alloca ptr, align 8
  %10 = alloca i32, align 4
  %11 = alloca ptr, align 8
  %12 = alloca ptr, align 8
  %13 = alloca ptr, align 8
  store ptr %0, ptr %5, align 8, !tbaa !103
  store ptr %1, ptr %6, align 8, !tbaa !156
  store ptr %2, ptr %7, align 8, !tbaa !109
  store ptr %3, ptr %8, align 8, !tbaa !61
  call void @llvm.lifetime.start.p0(i64 8, ptr %9) #10
  %14 = load ptr, ptr %5, align 8, !tbaa !103
  %15 = call ptr @gtk_tree_view_get_model(ptr noundef %14)
  store ptr %15, ptr %9, align 8, !tbaa !146
  %16 = load ptr, ptr %9, align 8, !tbaa !146
  %17 = load ptr, ptr %6, align 8, !tbaa !156
  %18 = call i32 @gtk_tree_model_get_iter(ptr noundef %16, ptr noundef @edited_iter, ptr noundef %17)
  %19 = load ptr, ptr %9, align 8, !tbaa !146
  %20 = call i32 @gtk_tree_model_iter_has_child(ptr noundef %19, ptr noundef @edited_iter)
  %21 = icmp ne i32 %20, 0
  br i1 %21, label %22, label %36

22:                                               ; preds = %4
  %23 = load ptr, ptr %5, align 8, !tbaa !103
  %24 = load ptr, ptr %6, align 8, !tbaa !156
  %25 = call i32 @gtk_tree_view_row_expanded(ptr noundef %23, ptr noundef %24)
  %26 = icmp ne i32 %25, 0
  br i1 %26, label %27, label %31

27:                                               ; preds = %22
  %28 = load ptr, ptr %5, align 8, !tbaa !103
  %29 = load ptr, ptr %6, align 8, !tbaa !156
  %30 = call i32 @gtk_tree_view_collapse_row(ptr noundef %28, ptr noundef %29)
  br label %35

31:                                               ; preds = %22
  %32 = load ptr, ptr %5, align 8, !tbaa !103
  %33 = load ptr, ptr %6, align 8, !tbaa !156
  %34 = call i32 @gtk_tree_view_expand_row(ptr noundef %32, ptr noundef %33, i32 noundef 0)
  br label %35

35:                                               ; preds = %31, %27
  br label %53

36:                                               ; preds = %4
  call void @llvm.lifetime.start.p0(i64 4, ptr %10) #10
  call void @llvm.lifetime.start.p0(i64 8, ptr %11) #10
  call void @llvm.lifetime.start.p0(i64 8, ptr %12) #10
  call void @llvm.lifetime.start.p0(i64 8, ptr %13) #10
  %37 = load ptr, ptr %9, align 8, !tbaa !146
  call void (ptr, ptr, ...) @gtk_tree_model_get(ptr noundef %37, ptr noundef @edited_iter, i32 noundef 0, ptr noundef %10, i32 noundef 4, ptr noundef %11, i32 noundef 1, ptr noundef %12, i32 noundef 3, ptr noundef %13, i32 noundef -1)
  %38 = load ptr, ptr %13, align 8, !tbaa !144
  %39 = icmp eq ptr %38, null
  br i1 %39, label %40, label %48

40:                                               ; preds = %36
  %41 = load ptr, ptr %11, align 8, !tbaa !73
  %42 = load ptr, ptr %12, align 8, !tbaa !73
  %43 = load i32, ptr %10, align 4, !tbaa !57
  %44 = load ptr, ptr %9, align 8, !tbaa !146
  %45 = load ptr, ptr @_preferences_dialog, align 8, !tbaa !6
  %46 = call i64 @gtk_window_get_type() #11
  %47 = call ptr @g_type_check_instance_cast(ptr noundef %45, i64 noundef %46)
  call void @dt_gui_presets_show_edit_dialog(ptr noundef %41, ptr noundef %42, i32 noundef %43, ptr noundef @edit_preset_response, ptr noundef %44, i32 noundef 1, i32 noundef 1, i32 noundef 1, ptr noundef %47)
  br label %50

48:                                               ; preds = %36
  %49 = load ptr, ptr %13, align 8, !tbaa !144
  call void @g_object_unref(ptr noundef %49)
  br label %50

50:                                               ; preds = %48, %40
  %51 = load ptr, ptr %11, align 8, !tbaa !73
  call void @g_free(ptr noundef %51)
  %52 = load ptr, ptr %12, align 8, !tbaa !73
  call void @g_free(ptr noundef %52)
  call void @llvm.lifetime.end.p0(i64 8, ptr %13) #10
  call void @llvm.lifetime.end.p0(i64 8, ptr %12) #10
  call void @llvm.lifetime.end.p0(i64 8, ptr %11) #10
  call void @llvm.lifetime.end.p0(i64 4, ptr %10) #10
  br label %53

53:                                               ; preds = %50, %35
  call void @llvm.lifetime.end.p0(i64 8, ptr %9) #10
  ret void
}