; Function Attrs: nounwind uwtable
define internal void @tree_row_activated_presets(ptr noundef %0, ptr noundef %1, ptr readnone captures(none) %2, ptr readnone captures(none) %3) #0 {
  %5 = alloca i32, align 4
  %6 = alloca ptr, align 8
  %7 = alloca ptr, align 8
  %8 = alloca ptr, align 8
  %9 = tail call ptr @gtk_tree_view_get_model(ptr noundef %0) #12
  %10 = tail call i32 @gtk_tree_model_get_iter(ptr noundef %9, ptr noundef nonnull @edited_iter, ptr noundef %1) #12
  %11 = tail call i32 @gtk_tree_model_iter_has_child(ptr noundef %9, ptr noundef nonnull @edited_iter) #12
  %.not = icmp eq i32 %11, 0
  br i1 %.not, label %18, label %12

12:                                               ; preds = %4
  %13 = tail call i32 @gtk_tree_view_row_expanded(ptr noundef %0, ptr noundef %1) #12
  %.not12 = icmp eq i32 %13, 0
  br i1 %.not12, label %16, label %14

14:                                               ; preds = %12
  %15 = tail call i32 @gtk_tree_view_collapse_row(ptr noundef %0, ptr noundef %1) #12
  br label %32

16:                                               ; preds = %12
  %17 = tail call i32 @gtk_tree_view_expand_row(ptr noundef %0, ptr noundef %1, i32 noundef 0) #12
  br label %32

18:                                               ; preds = %4
  call void @llvm.lifetime.start.p0(i64 4, ptr nonnull %5) #12
  call void @llvm.lifetime.start.p0(i64 8, ptr nonnull %6) #12
  call void @llvm.lifetime.start.p0(i64 8, ptr nonnull %7) #12
  call void @llvm.lifetime.start.p0(i64 8, ptr nonnull %8) #12
  call void (ptr, ptr, ...) @gtk_tree_model_get(ptr noundef %9, ptr noundef nonnull @edited_iter, i32 noundef 0, ptr noundef nonnull %5, i32 noundef 4, ptr noundef nonnull %6, i32 noundef 1, ptr noundef nonnull %7, i32 noundef 3, ptr noundef nonnull %8, i32 noundef -1) #12
  %19 = load ptr, ptr %8, align 8, !tbaa !104
  %20 = icmp eq ptr %19, null
  br i1 %20, label %21, label %28

21:                                               ; preds = %18
  %22 = load ptr, ptr %6, align 8, !tbaa !75
  %23 = load ptr, ptr %7, align 8, !tbaa !75
  %24 = load i32, ptr %5, align 4, !tbaa !62
  %25 = load ptr, ptr @_preferences_dialog, align 8, !tbaa !61
  %26 = tail call i64 @gtk_window_get_type() #13
  %27 = call ptr @g_type_check_instance_cast(ptr noundef %25, i64 noundef %26) #12
  call void @dt_gui_presets_show_edit_dialog(ptr noundef %22, ptr noundef %23, i32 noundef %24, ptr noundef nonnull @edit_preset_response, ptr noundef %9, i32 noundef 1, i32 noundef 1, i32 noundef 1, ptr noundef %27) #12
  br label %29

28:                                               ; preds = %18
  call void @g_object_unref(ptr noundef nonnull %19) #12
  br label %29

29:                                               ; preds = %28, %21
  %30 = load ptr, ptr %6, align 8, !tbaa !75
  call void @g_free(ptr noundef %30) #12
  %31 = load ptr, ptr %7, align 8, !tbaa !75
  call void @g_free(ptr noundef %31) #12
  call void @llvm.lifetime.end.p0(i64 8, ptr nonnull %8) #12
  call void @llvm.lifetime.end.p0(i64 8, ptr nonnull %7) #12
  call void @llvm.lifetime.end.p0(i64 8, ptr nonnull %6) #12
  call void @llvm.lifetime.end.p0(i64 4, ptr nonnull %5) #12
  br label %32

32:                                               ; preds = %14, %16, %29
  ret void
}